target datalayout = "e-m:e-p270:32:32-p271:32:32-p272:64:64-i64:64-i128:128-f80:128-n8:16:32:64-S128"
target triple = "x86_64-pc-linux-gnu"

; Function Attrs: nounwind uwtable
define internal i32 @ft_gzip_check_header(ptr noundef %0) #0 {
  %2 = alloca ptr, align 8
  %3 = alloca i32, align 4
  %4 = alloca [4 x i8], align 1
  %5 = alloca i32, align 4
  %6 = alloca i32, align 4
  %7 = alloca i32, align 4
  store ptr %0, ptr %2, align 8
  %8 = load ptr, ptr %2, align 8
  %9 = call i32 @FT_Stream_Seek(ptr noundef %8, i64 noundef 0)
  store i32 %9, ptr %3, align 4
  %10 = icmp ne i32 %9, 0
  br i1 %10, label %16, label %11

11:                                               ; preds = %1
  %12 = load ptr, ptr %2, align 8
  %13 = getelementptr inbounds [4 x i8], ptr %4, i64 0, i64 0
  %14 = call i32 @FT_Stream_Read(ptr noundef %12, ptr noundef %13, i64 noundef 4)
  store i32 %14, ptr %3, align 4
  %15 = icmp ne i32 %14, 0
  br i1 %15, label %16, label %17

16:                                               ; preds = %11, %1
  br label %114

17:                                               ; preds = %11
  %18 = getelementptr inbounds [4 x i8], ptr %4, i64 0, i64 0
  %19 = load i8, ptr %18, align 1
  %20 = zext i8 %19 to i32
  %21 = icmp ne i32 %20, 31
  br i1 %21, label %38, label %22

22:                                               ; preds = %17
  %23 = getelementptr inbounds [4 x i8], ptr %4, i64 0, i64 1
  %24 = load i8, ptr %23, align 1
  %25 = zext i8 %24 to i32
  %26 = icmp ne i32 %25, 139
  br i1 %26, label %38, label %27

27:                                               ; preds = %22
  %28 = getelementptr inbounds [4 x i8], ptr %4, i64 0, i64 2
  %29 = load i8, ptr %28, align 1
  %30 = zext i8 %29 to i32
  %31 = icmp ne i32 %30, 8
  br i1 %31, label %38, label %32

32:                                               ; preds = %27
  %33 = getelementptr inbounds [4 x i8], ptr %4, i64 0, i64 3
  %34 = load i8, ptr %33, align 1
  %35 = zext i8 %34 to i32
  %36 = and i32 %35, 224
  %37 = icmp ne i32 %36, 0
  br i1 %37, label %38, label %39

38:                                               ; preds = %32, %27, %22, %17
  store i32 3, ptr %3, align 4
  br label %114

39:                                               ; preds = %32
  %40 = load ptr, ptr %2, align 8
  %41 = call i32 @FT_Stream_Skip(ptr noundef %40, i64 noundef 6)
  store i32 %41, ptr %3, align 4
  %42 = getelementptr inbounds [4 x i8], ptr %4, i64 0, i64 3
  %43 = load i8, ptr %42, align 1
  %44 = zext i8 %43 to i32
  %45 = and i32 %44, 4
  %46 = icmp ne i32 %45, 0
  br i1 %46, label %47, label %61

47:                                               ; preds = %39
  %48 = load ptr, ptr %2, align 8
  %49 = call zeroext i16 @FT_Stream_ReadUShortLE(ptr noundef %48, ptr noundef %3)
  %50 = zext i16 %49 to i32
  store i32 %50, ptr %5, align 4
  %51 = load i32, ptr %3, align 4
  %52 = icmp ne i32 %51, 0
  br i1 %52, label %59, label %53

53:                                               ; preds = %47
  %54 = load ptr, ptr %2, align 8
  %55 = load i32, ptr %5, align 4
  %56 = zext i32 %55 to i64
  %57 = call i32 @FT_Stream_Skip(ptr noundef %54, i64 noundef %56)
  store i32 %57, ptr %3, align 4
  %58 = icmp ne i32 %57, 0
  br i1 %58, label %59, label %60

59:                                               ; preds = %53, %47
  br label %114

60:                                               ; preds = %53
  br label %61

61:                                               ; preds = %60, %39
  %62 = getelementptr inbounds [4 x i8], ptr %4, i64 0, i64 3
  %63 = load i8, ptr %62, align 1
  %64 = zext i8 %63 to i32
  %65 = and i32 %64, 8
  %66 = icmp ne i32 %65, 0
  br i1 %66, label %67, label %81

67:                                               ; preds = %61
  br label %68

68:                                               ; preds = %79, %67
  %69 = load ptr, ptr %2, align 8
  %70 = call zeroext i8 @FT_Stream_ReadByte(ptr noundef %69, ptr noundef %3)
  %71 = zext i8 %70 to i32
  store i32 %71, ptr %6, align 4
  %72 = load i32, ptr %3, align 4
  %73 = icmp ne i32 %72, 0
  br i1 %73, label %74, label %75

74:                                               ; preds = %68
  br label %114

75:                                               ; preds = %68
  %76 = load i32, ptr %6, align 4
  %77 = icmp eq i32 %76, 0
  br i1 %77, label %78, label %79

78:                                               ; preds = %75
  br label %80

79:                                               ; preds = %75
  br label %68

80:                                               ; preds = %78
  br label %81

81:                                               ; preds = %80, %61
  %82 = getelementptr inbounds [4 x i8], ptr %4, i64 0, i64 3
  %83 = load i8, ptr %82, align 1
  %84 = zext i8 %83 to i32
  %85 = and i32 %84, 16
  %86 = icmp ne i32 %85, 0
  br i1 %86, label %87, label %101

87:                                               ; preds = %81
  br label %88

88:                                               ; preds = %99, %87
  %89 = load ptr, ptr %2, align 8
  %90 = call zeroext i8 @FT_Stream_ReadByte(ptr noundef %89, ptr noundef %3)
  %91 = zext i8 %90 to i32
  store i32 %91, ptr %7, align 4
  %92 = load i32, ptr %3, align 4
  %93 = icmp ne i32 %92, 0
  br i1 %93, label %94, label %95

94:                                               ; preds = %88
  br label %114

95:                                               ; preds = %88
  %96 = load i32, ptr %7, align 4
  %97 = icmp eq i32 %96, 0
  br i1 %97, label %98, label %99

98:                                               ; preds = %95
  br label %100

99:                                               ; preds = %95
  br label %88

100:                                              ; preds = %98
  br label %101

101:                                              ; preds = %100, %81
  %102 = getelementptr inbounds [4 x i8], ptr %4, i64 0, i64 3
  %103 = load i8, ptr %102, align 1
  %104 = zext i8 %103 to i32
  %105 = and i32 %104, 2
  %106 = icmp ne i32 %105, 0
  br i1 %106, label %107, label %113

107:                                              ; preds = %101
  %108 = load ptr, ptr %2, align 8
  %109 = call i32 @FT_Stream_Skip(ptr noundef %108, i64 noundef 2)
  store i32 %109, ptr %3, align 4
  %110 = icmp ne i32 %109, 0
  br i1 %110, label %111, label %112

111:                                              ; preds = %107
  br label %114

112:                                              ; preds = %107
  br label %113

113:                                              ; preds = %112, %101
  br label %114

114:                                              ; preds = %113, %111, %94, %74, %59, %38, %16
  %115 = load i32, ptr %3, align 4
  ret i32 %115
}