; Function Attrs: nounwind uwtable
define internal fastcc i32 @ft_gzip_check_header(ptr noundef %0) unnamed_addr #0 {
  %2 = alloca i32, align 4
  %3 = alloca [4 x i8], align 1
  %4 = tail call i32 @FT_Stream_Seek(ptr noundef %0, i64 noundef 0) #6
  %.not = icmp eq i32 %4, 0
  br i1 %.not, label %5, label %.loopexit

5:                                                ; preds = %1
  %6 = call i32 @FT_Stream_Read(ptr noundef %0, ptr noundef nonnull %3, i64 noundef 4) #6
  %.not17 = icmp eq i32 %6, 0
  br i1 %.not17, label %7, label %.loopexit

7:                                                ; preds = %5
  %8 = load i8, ptr %3, align 1
  %9 = icmp ne i8 %8, 31
  %10 = getelementptr inbounds i8, ptr %3, i64 1
  %11 = load i8, ptr %10, align 1
  %12 = icmp ne i8 %11, -117
  %or.cond = select i1 %9, i1 true, i1 %12
  %13 = getelementptr inbounds i8, ptr %3, i64 2
  %14 = load i8, ptr %13, align 1
  %15 = icmp ne i8 %14, 8
  %or.cond7 = select i1 %or.cond, i1 true, i1 %15
  br i1 %or.cond7, label %.loopexit, label %16

16:                                               ; preds = %7
  %17 = getelementptr inbounds i8, ptr %3, i64 3
  %18 = load i8, ptr %17, align 1
  %.not18 = icmp ult i8 %18, 32
  br i1 %.not18, label %19, label %.loopexit

19:                                               ; preds = %16
  %20 = call i32 @FT_Stream_Skip(ptr noundef %0, i64 noundef 6) #6
  store i32 %20, ptr %2, align 4
  %21 = load i8, ptr %17, align 1
  %22 = and i8 %21, 4
  %.not19 = icmp eq i8 %22, 0
  br i1 %.not19, label %29, label %23

23:                                               ; preds = %19
  %24 = call zeroext i16 @FT_Stream_ReadUShortLE(ptr noundef %0, ptr noundef nonnull %2) #6
  %25 = load i32, ptr %2, align 4
  %.not20 = icmp eq i32 %25, 0
  br i1 %.not20, label %26, label %.loopexit

26:                                               ; preds = %23
  %27 = zext i16 %24 to i64
  %28 = call i32 @FT_Stream_Skip(ptr noundef %0, i64 noundef %27) #6
  store i32 %28, ptr %2, align 4
  %.not21 = icmp eq i32 %28, 0
  br i1 %.not21, label %._crit_edge, label %.loopexit

._crit_edge:                                      ; preds = %26
  %.pre = load i8, ptr %17, align 1
  br label %29

29:                                               ; preds = %._crit_edge, %19
  %30 = phi i32 [ 0, %._crit_edge ], [ %20, %19 ]
  %31 = phi i8 [ %.pre, %._crit_edge ], [ %21, %19 ]
  %32 = and i8 %31, 8
  %.not22 = icmp eq i8 %32, 0
  br i1 %.not22, label %.loopexit30, label %.preheader28

.preheader28:                                     ; preds = %29, %35
  %33 = call zeroext i8 @FT_Stream_ReadByte(ptr noundef %0, ptr noundef nonnull %2) #6
  %34 = load i32, ptr %2, align 4
  %.not23 = icmp eq i32 %34, 0
  br i1 %.not23, label %35, label %.loopexit

35:                                               ; preds = %.preheader28
  %36 = icmp eq i8 %33, 0
  br i1 %36, label %.loopexit30.loopexit, label %.preheader28

.loopexit30.loopexit:                             ; preds = %35
  %.pre32 = load i8, ptr %17, align 1
  br label %.loopexit30

.loopexit30:                                      ; preds = %.loopexit30.loopexit, %29
  %37 = phi i32 [ 0, %.loopexit30.loopexit ], [ %30, %29 ]
  %38 = phi i8 [ %.pre32, %.loopexit30.loopexit ], [ %31, %29 ]
  %39 = and i8 %38, 16
  %.not24 = icmp eq i8 %39, 0
  br i1 %.not24, label %.loopexit27, label %.preheader

.preheader:                                       ; preds = %.loopexit30, %42
  %40 = call zeroext i8 @FT_Stream_ReadByte(ptr noundef %0, ptr noundef nonnull %2) #6
  %41 = load i32, ptr %2, align 4
  %.not25 = icmp eq i32 %41, 0
  br i1 %.not25, label %42, label %.loopexit

42:                                               ; preds = %.preheader
  %43 = icmp eq i8 %40, 0
  br i1 %43, label %.loopexit27.loopexit, label %.preheader

.loopexit27.loopexit:                             ; preds = %42
  %.pre33 = load i8, ptr %17, align 1
  br label %.loopexit27

.loopexit27:                                      ; preds = %.loopexit27.loopexit, %.loopexit30
  %44 = phi i32 [ 0, %.loopexit27.loopexit ], [ %37, %.loopexit30 ]
  %45 = phi i8 [ %.pre33, %.loopexit27.loopexit ], [ %38, %.loopexit30 ]
  %46 = and i8 %45, 2
  %.not26 = icmp eq i8 %46, 0
  br i1 %.not26, label %.loopexit, label %47

47:                                               ; preds = %.loopexit27
  %48 = call i32 @FT_Stream_Skip(ptr noundef %0, i64 noundef 2) #6
  br label %.loopexit

.loopexit:                                        ; preds = %.preheader28, %.preheader, %7, %16, %47, %.loopexit27, %23, %26, %1, %5
  %49 = phi i32 [ %48, %47 ], [ %44, %.loopexit27 ], [ %25, %23 ], [ %28, %26 ], [ %4, %1 ], [ %6, %5 ], [ 3, %16 ], [ 3, %7 ], [ %41, %.preheader ], [ %34, %.preheader28 ]
  ret i32 %49
}